; Function Attrs: mustprogress nofree norecurse nosync nounwind willreturn memory(argmem: read) uwtable
define noundef nonnull align 4 dereferenceable(4) ptr @_ZN7Imf_3_218DeepTiledInputFile4Data14getSampleCountEii(ptr nocapture noundef nonnull readonly align 8 dereferenceable(481) %this, i32 noundef %x, i32 noundef %y) local_unnamed_addr #6 align 2 {
entry:
  %sampleCountSliceBase = getelementptr inbounds i8, ptr %this, i64 400
  %0 = load ptr, ptr %sampleCountSliceBase, align 8
  %sampleCountXStride = getelementptr inbounds i8, ptr %this, i64 408
  %1 = load i64, ptr %sampleCountXStride, align 8
  %sampleCountYStride = getelementptr inbounds i8, ptr %this, i64 416
  %2 = load i64, ptr %sampleCountYStride, align 8
  %conv.i = sext i32 %y to i64
  %sext = shl i64 %2, 32
  %conv1.i = ashr exact i64 %sext, 32
  %mul.i = mul nsw i64 %conv1.i, %conv.i
  %add.ptr.i = getelementptr inbounds i8, ptr %0, i64 %mul.i
  %conv2.i = sext i32 %x to i64
  %sext1 = shl i64 %1, 32
  %conv3.i = ashr exact i64 %sext1, 32
  %mul4.i = mul nsw i64 %conv3.i, %conv2.i
  %add.ptr5.i = getelementptr inbounds i8, ptr %add.ptr.i, i64 %mul4.i
  ret ptr %add.ptr5.i
}